target datalayout = "e-m:e-p270:32:32-p271:32:32-p272:64:64-i64:64-i128:128-f80:128-n8:16:32:64-S128"
target triple = "x86_64-pc-linux-gnu"

%struct.H5HG_t = type { i64, i64 }
%struct.H5CX_node_t = type { %struct.H5CX_t, ptr }
%struct.H5CX_t = type { i64, ptr, i64, ptr, i64, ptr, i64, ptr, i64, ptr, i64, ptr, i64, i32, i64, i8, ptr, i8, ptr, i8, i32, i8, [3 x double], i8, i64, i8, i32, i8, %struct.H5Z_cb_t, i8, ptr, i8, %struct.H5T_vlen_alloc_info_t, i8, %struct.H5T_conv_cb_t, i8, i32, i8, i8, i8, i32, i8, i8, i32, i8, i8, i32, i8, i32, i8, i64, i8, i8, i8, i8, i8, ptr, i8, ptr, i8, i32, i8, i32, i8, %struct.H5VL_connector_prop_t, i8, ptr, i8 }
%struct.H5Z_cb_t = type { ptr, ptr }
%struct.H5T_vlen_alloc_info_t = type { ptr, ptr, ptr, ptr }
%struct.H5T_conv_cb_t = type { ptr, ptr }
%struct.H5VL_connector_prop_t = type { ptr, ptr }
%struct.H5O_layout_t = type { i32, i32, ptr, %union.anon.0, %struct.H5O_storage_t }
%union.anon.0 = type { %struct.H5O_layout_chunk_t }
%struct.H5O_layout_chunk_t = type { i32, i8, i32, [33 x i32], i32, i32, i64, i64, [33 x i64], [33 x i64], [33 x i64], [33 x i64], %union.anon.1 }
%union.anon.1 = type { %struct.H5O_layout_chunk_earray_t }
%struct.H5O_layout_chunk_earray_t = type { %struct.anon.2, i32, [33 x i32], [33 x i64], [33 x i64] }
%struct.anon.2 = type { i8, i8, i8, i8, i8 }
%struct.H5O_storage_t = type { i32, %union.anon.4 }
%union.anon.4 = type { %struct.H5O_storage_virtual_t }
%struct.H5O_storage_virtual_t = type { %struct.H5HG_t, i64, ptr, i64, [32 x i64], i32, i64, i64, i64, i8 }

@H5P_CLS_DATASET_CREATE_ID_g = external global i64, align 8
@H5P_init_g = external global i8, align 1
@H5_libterm_g = external global i8, align 1
@H5_libinit_g = external global i8, align 1
@.str.1 = private unnamed_addr constant [101 x i8] c"generated/home/dtcxzyw/WorkSpace/Projects/compilers/llvm-opt-benchmark/bench/hdf5/hdf5/src/H5Pdcpl.c\00", align 1
@H5E_FUNC_g = external global i64, align 8
@H5E_CANTINIT_g = external global i64, align 8
@.str.2 = private unnamed_addr constant [30 x i8] c"library initialization failed\00", align 1
@.str.3 = private unnamed_addr constant [32 x i8] c"interface initialization failed\00", align 1
@H5E_CANTSET_g = external global i64, align 8
@.str.4 = private unnamed_addr constant [22 x i8] c"can't set API context\00", align 1
@H5E_ARGS_g = external global i64, align 8
@H5E_ID_g = external global i64, align 8
@H5E_BADID_g = external global i64, align 8
@.str.6 = private unnamed_addr constant [25 x i8] c"can't find object for ID\00", align 1
@H5E_PLIST_g = external global i64, align 8
@.str.9 = private unnamed_addr constant [7 x i8] c"layout\00", align 1
@.str.10 = private unnamed_addr constant [17 x i8] c"can't get layout\00", align 1
@H5E_BADVALUE_g = external global i64, align 8
@__func__.H5Pget_virtual_count = private unnamed_addr constant [21 x i8] c"H5Pget_virtual_count\00", align 1
@.str.33 = private unnamed_addr constant [29 x i8] c"not a virtual storage layout\00", align 1

; Function Attrs: nounwind uwtable
define i32 @H5Pget_virtual_count(i64 noundef %0, ptr noundef %1) #0 {
  %3 = alloca i64, align 8
  %4 = alloca ptr, align 8
  %5 = alloca ptr, align 8
  %6 = alloca %struct.H5O_layout_t, align 8
  %7 = alloca i32, align 4
  %8 = alloca %struct.H5CX_node_t, align 8
  %9 = alloca i8, align 1
  %10 = alloca i8, align 1
  store i64 %0, ptr %3, align 8, !tbaa !14
  store ptr %1, ptr %4, align 8, !tbaa !36
  call void @llvm.lifetime.start.p0(i64 8, ptr %5) #11
  call void @llvm.lifetime.start.p0(i64 2256, ptr %6) #11
  call void @llvm.lifetime.start.p0(i64 4, ptr %7) #11
  store i32 0, ptr %7, align 4, !tbaa !8
  call void @llvm.lifetime.start.p0(i64 480, ptr %8) #11
  call void @llvm.memset.p0.i64(ptr align 8 %8, i8 0, i64 480, i1 false)
  call void @llvm.lifetime.start.p0(i64 1, ptr %9) #11
  store i8 0, ptr %9, align 1, !tbaa !10
  call void @llvm.lifetime.start.p0(i64 1, ptr %10) #11
  store i8 0, ptr %10, align 1, !tbaa !10
  br label %11

11:                                               ; preds = %2
  %12 = load i8, ptr @H5_libinit_g, align 1, !tbaa !10, !range !12, !noundef !13
  %13 = trunc i8 %12 to i1
  br i1 %13, label %18, label %14

14:                                               ; preds = %11
  %15 = load i8, ptr @H5_libterm_g, align 1, !tbaa !10, !range !12, !noundef !13
  %16 = trunc i8 %15 to i1
  %17 = xor i1 %16, true
  br label %18

18:                                               ; preds = %14, %11
  %19 = phi i1 [ false, %11 ], [ %17, %14 ]
  %20 = xor i1 %19, true
  %21 = xor i1 %20, true
  %22 = zext i1 %21 to i32
  %23 = sext i32 %22 to i64
  %24 = call i64 @llvm.expect.i64(i64 %23, i64 0)
  %25 = icmp ne i64 %24, 0
  br i1 %25, label %26, label %55

26:                                               ; preds = %18
  %27 = call i32 @H5_init_library()
  %28 = icmp slt i32 %27, 0
  %29 = xor i1 %28, true
  %30 = xor i1 %29, true
  %31 = zext i1 %30 to i32
  %32 = sext i32 %31 to i64
  %33 = call i64 @llvm.expect.i64(i64 %32, i64 0)
  %34 = icmp ne i64 %33, 0
  br i1 %34, label %35, label %54

35:                                               ; preds = %26
  br label %36

36:                                               ; preds = %35
  br label %37

37:                                               ; preds = %36
  br label %38

38:                                               ; preds = %37
  %39 = load i64, ptr @H5E_FUNC_g, align 8, !tbaa !14
  %40 = load i64, ptr @H5E_CANTINIT_g, align 8, !tbaa !14
  %41 = call i32 (ptr, ptr, i32, i64, i64, ptr, ...) @H5E_printf_stack(ptr noundef @.str.1, ptr noundef @__func__.H5Pget_virtual_count, i32 noundef 2199, i64 noundef %39, i64 noundef %40, ptr noundef @.str.2)
  br label %42

42:                                               ; preds = %38
  br label %43

43:                                               ; preds = %42
  store i8 1, ptr %10, align 1, !tbaa !10
  %44 = load i8, ptr %10, align 1, !tbaa !10, !range !12, !noundef !13
  %45 = trunc i8 %44 to i1
  %46 = zext i1 %45 to i8
  store i8 %46, ptr %10, align 1, !tbaa !10
  br label %47

47:                                               ; preds = %43
  br label %48

48:                                               ; preds = %47
  br label %49

49:                                               ; preds = %48
  store i32 -1, ptr %7, align 4, !tbaa !8
  br label %208

50:                                               ; No predecessors!
  br label %51

51:                                               ; preds = %50
  br label %52

52:                                               ; preds = %51
  br label %53

53:                                               ; preds = %52
  br label %54

54:                                               ; preds = %53, %26
  br label %55

55:                                               ; preds = %54, %18
  %56 = load i8, ptr @H5P_init_g, align 1, !tbaa !10, !range !12, !noundef !13
  %57 = trunc i8 %56 to i1
  br i1 %57, label %62, label %58

58:                                               ; preds = %55
  %59 = load i8, ptr @H5_libterm_g, align 1, !tbaa !10, !range !12, !noundef !13
  %60 = trunc i8 %59 to i1
  %61 = xor i1 %60, true
  br label %62

62:                                               ; preds = %58, %55
  %63 = phi i1 [ false, %55 ], [ %61, %58 ]
  %64 = xor i1 %63, true
  %65 = xor i1 %64, true
  %66 = zext i1 %65 to i32
  %67 = sext i32 %66 to i64
  %68 = call i64 @llvm.expect.i64(i64 %67, i64 0)
  %69 = icmp ne i64 %68, 0
  br i1 %69, label %70, label %93

70:                                               ; preds = %62
  store i8 1, ptr @H5P_init_g, align 1, !tbaa !10
  %71 = call i32 @H5P__init_package()
  %72 = icmp slt i32 %71, 0
  br i1 %72, label %73, label %92

73:                                               ; preds = %70
  store i8 0, ptr @H5P_init_g, align 1, !tbaa !10
  br label %74

74:                                               ; preds = %73
  br label %75

75:                                               ; preds = %74
  br label %76

76:                                               ; preds = %75
  %77 = load i64, ptr @H5E_FUNC_g, align 8, !tbaa !14
  %78 = load i64, ptr @H5E_CANTINIT_g, align 8, !tbaa !14
  %79 = call i32 (ptr, ptr, i32, i64, i64, ptr, ...) @H5E_printf_stack(ptr noundef @.str.1, ptr noundef @__func__.H5Pget_virtual_count, i32 noundef 2199, i64 noundef %77, i64 noundef %78, ptr noundef @.str.3)
  br label %80

80:                                               ; preds = %76
  br label %81

81:                                               ; preds = %80
  store i8 1, ptr %10, align 1, !tbaa !10
  %82 = load i8, ptr %10, align 1, !tbaa !10, !range !12, !noundef !13
  %83 = trunc i8 %82 to i1
  %84 = zext i1 %83 to i8
  store i8 %84, ptr %10, align 1, !tbaa !10
  br label %85

85:                                               ; preds = %81
  br label %86

86:                                               ; preds = %85
  br label %87

87:                                               ; preds = %86
  store i32 -1, ptr %7, align 4, !tbaa !8
  br label %208

88:                                               ; No predecessors!
  br label %89

89:                                               ; preds = %88
  br label %90

90:                                               ; preds = %89
  br label %91

91:                                               ; preds = %90
  br label %92

92:                                               ; preds = %91, %70
  br label %93

93:                                               ; preds = %92, %62
  br label %94

94:                                               ; preds = %93
  br label %95

95:                                               ; preds = %94
  br label %96

96:                                               ; preds = %95
  %97 = call i32 @H5CX_push(ptr noundef %8)
  %98 = icmp slt i32 %97, 0
  %99 = xor i1 %98, true
  %100 = xor i1 %99, true
  %101 = zext i1 %100 to i32
  %102 = sext i32 %101 to i64
  %103 = call i64 @llvm.expect.i64(i64 %102, i64 0)
  %104 = icmp ne i64 %103, 0
  br i1 %104, label %105, label %124

105:                                              ; preds = %96
  br label %106

106:                                              ; preds = %105
  br label %107

107:                                              ; preds = %106
  br label %108

108:                                              ; preds = %107
  %109 = load i64, ptr @H5E_FUNC_g, align 8, !tbaa !14
  %110 = load i64, ptr @H5E_CANTSET_g, align 8, !tbaa !14
  %111 = call i32 (ptr, ptr, i32, i64, i64, ptr, ...) @H5E_printf_stack(ptr noundef @.str.1, ptr noundef @__func__.H5Pget_virtual_count, i32 noundef 2199, i64 noundef %109, i64 noundef %110, ptr noundef @.str.4)
  br label %112

112:                                              ; preds = %108
  br label %113

113:                                              ; preds = %112
  store i8 1, ptr %10, align 1, !tbaa !10
  %114 = load i8, ptr %10, align 1, !tbaa !10, !range !12, !noundef !13
  %115 = trunc i8 %114 to i1
  %116 = zext i1 %115 to i8
  store i8 %116, ptr %10, align 1, !tbaa !10
  br label %117

117:                                              ; preds = %113
  br label %118

118:                                              ; preds = %117
  br label %119

119:                                              ; preds = %118
  store i32 -1, ptr %7, align 4, !tbaa !8
  br label %208

120:                                              ; No predecessors!
  br label %121

121:                                              ; preds = %120
  br label %122

122:                                              ; preds = %121
  br label %123

123:                                              ; preds = %122
  br label %125

124:                                              ; preds = %96
  store i8 1, ptr %9, align 1, !tbaa !10
  br label %125

125:                                              ; preds = %124, %123
  br label %126

126:                                              ; preds = %125
  br label %127

127:                                              ; preds = %126
  %128 = call i32 @H5E_clear_stack()
  %129 = load ptr, ptr %4, align 8, !tbaa !36
  %130 = icmp ne ptr %129, null
  br i1 %130, label %131, label %207

131:                                              ; preds = %127
  %132 = load i64, ptr %3, align 8, !tbaa !14
  %133 = load i64, ptr @H5P_CLS_DATASET_CREATE_ID_g, align 8, !tbaa !14
  %134 = call ptr @H5P_object_verify(i64 noundef %132, i64 noundef %133, i1 noundef zeroext true)
  store ptr %134, ptr %5, align 8, !tbaa !28
  %135 = icmp eq ptr null, %134
  br i1 %135, label %136, label %155

136:                                              ; preds = %131
  br label %137

137:                                              ; preds = %136
  br label %138

138:                                              ; preds = %137
  br label %139

139:                                              ; preds = %138
  %140 = load i64, ptr @H5E_ID_g, align 8, !tbaa !14
  %141 = load i64, ptr @H5E_BADID_g, align 8, !tbaa !14
  %142 = call i32 (ptr, ptr, i32, i64, i64, ptr, ...) @H5E_printf_stack(ptr noundef @.str.1, ptr noundef @__func__.H5Pget_virtual_count, i32 noundef 2204, i64 noundef %140, i64 noundef %141, ptr noundef @.str.6)
  br label %143

143:                                              ; preds = %139
  br label %144

144:                                              ; preds = %143
  store i8 1, ptr %10, align 1, !tbaa !10
  %145 = load i8, ptr %10, align 1, !tbaa !10, !range !12, !noundef !13
  %146 = trunc i8 %145 to i1
  %147 = zext i1 %146 to i8
  store i8 %147, ptr %10, align 1, !tbaa !10
  br label %148

148:                                              ; preds = %144
  br label %149

149:                                              ; preds = %148
  br label %150

150:                                              ; preds = %149
  store i32 -1, ptr %7, align 4, !tbaa !8
  br label %208

151:                                              ; No predecessors!
  br label %152

152:                                              ; preds = %151
  br label %153

153:                                              ; preds = %152
  br label %154

154:                                              ; preds = %153
  br label %155

155:                                              ; preds = %154, %131
  %156 = load ptr, ptr %5, align 8, !tbaa !28
  %157 = call i32 @H5P_peek(ptr noundef %156, ptr noundef @.str.9, ptr noundef %6)
  %158 = icmp slt i32 %157, 0
  br i1 %158, label %159, label %178

159:                                              ; preds = %155
  br label %160

160:                                              ; preds = %159
  br label %161

161:                                              ; preds = %160
  br label %162

162:                                              ; preds = %161
  %163 = load i64, ptr @H5E_PLIST_g, align 8, !tbaa !14
  %164 = load i64, ptr @H5E_BADVALUE_g, align 8, !tbaa !14
  %165 = call i32 (ptr, ptr, i32, i64, i64, ptr, ...) @H5E_printf_stack(ptr noundef @.str.1, ptr noundef @__func__.H5Pget_virtual_count, i32 noundef 2208, i64 noundef %163, i64 noundef %164, ptr noundef @.str.10)
  br label %166

166:                                              ; preds = %162
  br label %167

167:                                              ; preds = %166
  store i8 1, ptr %10, align 1, !tbaa !10
  %168 = load i8, ptr %10, align 1, !tbaa !10, !range !12, !noundef !13
  %169 = trunc i8 %168 to i1
  %170 = zext i1 %169 to i8
  store i8 %170, ptr %10, align 1, !tbaa !10
  br label %171

171:                                              ; preds = %167
  br label %172

172:                                              ; preds = %171
  br label %173

173:                                              ; preds = %172
  store i32 -1, ptr %7, align 4, !tbaa !8
  br label %208

174:                                              ; No predecessors!
  br label %175

175:                                              ; preds = %174
  br label %176

176:                                              ; preds = %175
  br label %177

177:                                              ; preds = %176
  br label %178

178:                                              ; preds = %177, %155
  %179 = getelementptr inbounds nuw %struct.H5O_layout_t, ptr %6, i32 0, i32 0
  %180 = load i32, ptr %179, align 8, !tbaa !32
  %181 = icmp ne i32 3, %180
  br i1 %181, label %182, label %201

182:                                              ; preds = %178
  br label %183

183:                                              ; preds = %182
  br label %184

184:                                              ; preds = %183
  br label %185

185:                                              ; preds = %184
  %186 = load i64, ptr @H5E_ARGS_g, align 8, !tbaa !14
  %187 = load i64, ptr @H5E_BADVALUE_g, align 8, !tbaa !14
  %188 = call i32 (ptr, ptr, i32, i64, i64, ptr, ...) @H5E_printf_stack(ptr noundef @.str.1, ptr noundef @__func__.H5Pget_virtual_count, i32 noundef 2210, i64 noundef %186, i64 noundef %187, ptr noundef @.str.33)
  br label %189

189:                                              ; preds = %185
  br label %190

190:                                              ; preds = %189
  store i8 1, ptr %10, align 1, !tbaa !10
  %191 = load i8, ptr %10, align 1, !tbaa !10, !range !12, !noundef !13
  %192 = trunc i8 %191 to i1
  %193 = zext i1 %192 to i8
  store i8 %193, ptr %10, align 1, !tbaa !10
  br label %194

194:                                              ; preds = %190
  br label %195

195:                                              ; preds = %194
  br label %196

196:                                              ; preds = %195
  store i32 -1, ptr %7, align 4, !tbaa !8
  br label %208

197:                                              ; No predecessors!
  br label %198

198:                                              ; preds = %197
  br label %199

199:                                              ; preds = %198
  br label %200

200:                                              ; preds = %199
  br label %201

201:                                              ; preds = %200, %178
  %202 = getelementptr inbounds nuw %struct.H5O_layout_t, ptr %6, i32 0, i32 4
  %203 = getelementptr inbounds nuw %struct.H5O_storage_t, ptr %202, i32 0, i32 1
  %204 = getelementptr inbounds nuw %struct.H5O_storage_virtual_t, ptr %203, i32 0, i32 1
  %205 = load i64, ptr %204, align 8, !tbaa !38
  %206 = load ptr, ptr %4, align 8, !tbaa !36
  store i64 %205, ptr %206, align 8, !tbaa !14
  br label %207

207:                                              ; preds = %201, %127
  br label %208

208:                                              ; preds = %207, %196, %173, %150, %119, %87, %49
  %209 = load i8, ptr %9, align 1, !tbaa !10, !range !12, !noundef !13
  %210 = trunc i8 %209 to i1
  %211 = xor i1 %210, true
  %212 = xor i1 %211, true
  %213 = zext i1 %212 to i32
  %214 = sext i32 %213 to i64
  %215 = call i64 @llvm.expect.i64(i64 %214, i64 1)
  %216 = icmp ne i64 %215, 0
  br i1 %216, label %217, label %219

217:                                              ; preds = %208
  %218 = call i32 @H5CX_pop(i1 noundef zeroext true)
  store i8 0, ptr %9, align 1, !tbaa !10
  br label %219

219:                                              ; preds = %217, %208
  %220 = load i8, ptr %10, align 1, !tbaa !10, !range !12, !noundef !13
  %221 = trunc i8 %220 to i1
  %222 = xor i1 %221, true
  %223 = xor i1 %222, true
  %224 = zext i1 %223 to i32
  %225 = sext i32 %224 to i64
  %226 = call i64 @llvm.expect.i64(i64 %225, i64 0)
  %227 = icmp ne i64 %226, 0
  br i1 %227, label %228, label %230

228:                                              ; preds = %219
  %229 = call i32 @H5E_dump_api_stack()
  br label %230

230:                                              ; preds = %228, %219
  %231 = load i32, ptr %7, align 4, !tbaa !8
  call void @llvm.lifetime.end.p0(i64 1, ptr %10) #11
  call void @llvm.lifetime.end.p0(i64 1, ptr %9) #11
  call void @llvm.lifetime.end.p0(i64 480, ptr %8) #11
  call void @llvm.lifetime.end.p0(i64 4, ptr %7) #11
  call void @llvm.lifetime.end.p0(i64 2256, ptr %6) #11
  call void @llvm.lifetime.end.p0(i64 8, ptr %5) #11
  ret i32 %231
}