; Function Attrs: nounwind uwtable
define range(i32 -1, 1) i32 @H5Pget_virtual_count(i64 noundef %0, ptr noundef writeonly captures(address_is_null) %1) local_unnamed_addr #0 {
  %3 = alloca %struct.H5O_layout_t, align 8
  %4 = alloca %struct.H5CX_node_t, align 8
  call void @llvm.lifetime.start.p0(i64 2256, ptr nonnull %3) #12
  call void @llvm.lifetime.start.p0(i64 480, ptr nonnull %4) #12
  call void @llvm.memset.p0.i64(ptr noundef nonnull align 8 dereferenceable(480) %4, i8 0, i64 480, i1 false)
  %5 = load i8, ptr @H5_libinit_g, align 1, !tbaa !3, !range !7, !noundef !8
  %6 = trunc nuw i8 %5 to i1
  %7 = load i8, ptr @H5_libterm_g, align 1, !range !7
  %8 = trunc nuw i8 %7 to i1
  %9 = select i1 %6, i1 true, i1 %8
  br i1 %9, label %17, label %10, !prof !9

10:                                               ; preds = %2
  %11 = tail call i32 @H5_init_library() #12
  %12 = icmp slt i32 %11, 0
  br i1 %12, label %13, label %._crit_edge, !prof !23

._crit_edge:                                      ; preds = %10
  %.pre = load i8, ptr @H5_libterm_g, align 1, !range !7
  br label %17

13:                                               ; preds = %10
  %14 = load i64, ptr @H5E_FUNC_g, align 8, !tbaa !10
  %15 = load i64, ptr @H5E_CANTINIT_g, align 8, !tbaa !10
  %16 = tail call i32 (ptr, ptr, i32, i64, i64, ptr, ...) @H5E_printf_stack(ptr noundef nonnull @.str.1, ptr noundef nonnull @__func__.H5Pget_virtual_count, i32 noundef 2199, i64 noundef %14, i64 noundef %15, ptr noundef nonnull @.str.2) #12
  br label %.thread25

17:                                               ; preds = %._crit_edge, %2
  %18 = phi i8 [ %.pre, %._crit_edge ], [ %7, %2 ]
  %19 = load i8, ptr @H5P_init_g, align 1, !tbaa !3, !range !7, !noundef !8
  %20 = trunc nuw i8 %19 to i1
  %21 = trunc nuw i8 %18 to i1
  %22 = select i1 %20, i1 true, i1 %21
  br i1 %22, label %30, label %23, !prof !9

23:                                               ; preds = %17
  store i8 1, ptr @H5P_init_g, align 1, !tbaa !3
  %24 = tail call i32 @H5P__init_package() #12
  %25 = icmp slt i32 %24, 0
  br i1 %25, label %26, label %30, !prof !24

26:                                               ; preds = %23
  store i8 0, ptr @H5P_init_g, align 1, !tbaa !3
  %27 = load i64, ptr @H5E_FUNC_g, align 8, !tbaa !10
  %28 = load i64, ptr @H5E_CANTINIT_g, align 8, !tbaa !10
  %29 = tail call i32 (ptr, ptr, i32, i64, i64, ptr, ...) @H5E_printf_stack(ptr noundef nonnull @.str.1, ptr noundef nonnull @__func__.H5Pget_virtual_count, i32 noundef 2199, i64 noundef %27, i64 noundef %28, ptr noundef nonnull @.str.3) #12
  br label %.thread25

30:                                               ; preds = %17, %23
  %31 = call i32 @H5CX_push(ptr noundef nonnull %4) #12
  %32 = icmp slt i32 %31, 0
  br i1 %32, label %33, label %37, !prof !23

33:                                               ; preds = %30
  %34 = load i64, ptr @H5E_FUNC_g, align 8, !tbaa !10
  %35 = load i64, ptr @H5E_CANTSET_g, align 8, !tbaa !10
  %36 = call i32 (ptr, ptr, i32, i64, i64, ptr, ...) @H5E_printf_stack(ptr noundef nonnull @.str.1, ptr noundef nonnull @__func__.H5Pget_virtual_count, i32 noundef 2199, i64 noundef %34, i64 noundef %35, ptr noundef nonnull @.str.4) #12
  br label %.thread25

37:                                               ; preds = %30
  %38 = call i32 @H5E_clear_stack() #12
  %.not = icmp eq ptr %1, null
  br i1 %.not, label %64, label %39

39:                                               ; preds = %37
  %40 = load i64, ptr @H5P_CLS_DATASET_CREATE_ID_g, align 8, !tbaa !10
  %41 = call ptr @H5P_object_verify(i64 noundef %0, i64 noundef %40, i1 noundef zeroext true) #12
  %42 = icmp eq ptr %41, null
  br i1 %42, label %43, label %47, !prof !25

43:                                               ; preds = %39
  %44 = load i64, ptr @H5E_ID_g, align 8, !tbaa !10
  %45 = load i64, ptr @H5E_BADID_g, align 8, !tbaa !10
  %46 = call i32 (ptr, ptr, i32, i64, i64, ptr, ...) @H5E_printf_stack(ptr noundef nonnull @.str.1, ptr noundef nonnull @__func__.H5Pget_virtual_count, i32 noundef 2204, i64 noundef %44, i64 noundef %45, ptr noundef nonnull @.str.6) #12
  br label %.thread31

47:                                               ; preds = %39
  %48 = call i32 @H5P_peek(ptr noundef nonnull %41, ptr noundef nonnull @.str.9, ptr noundef nonnull %3) #12
  %49 = icmp slt i32 %48, 0
  br i1 %49, label %50, label %54, !prof !25

50:                                               ; preds = %47
  %51 = load i64, ptr @H5E_PLIST_g, align 8, !tbaa !10
  %52 = load i64, ptr @H5E_BADVALUE_g, align 8, !tbaa !10
  %53 = call i32 (ptr, ptr, i32, i64, i64, ptr, ...) @H5E_printf_stack(ptr noundef nonnull @.str.1, ptr noundef nonnull @__func__.H5Pget_virtual_count, i32 noundef 2208, i64 noundef %51, i64 noundef %52, ptr noundef nonnull @.str.10) #12
  br label %.thread31

54:                                               ; preds = %47
  %55 = load i32, ptr %3, align 8, !tbaa !27
  %.not16 = icmp eq i32 %55, 3
  br i1 %.not16, label %60, label %56, !prof !31

56:                                               ; preds = %54
  %57 = load i64, ptr @H5E_ARGS_g, align 8, !tbaa !10
  %58 = load i64, ptr @H5E_BADVALUE_g, align 8, !tbaa !10
  %59 = call i32 (ptr, ptr, i32, i64, i64, ptr, ...) @H5E_printf_stack(ptr noundef nonnull @.str.1, ptr noundef nonnull @__func__.H5Pget_virtual_count, i32 noundef 2210, i64 noundef %57, i64 noundef %58, ptr noundef nonnull @.str.33) #12
  br label %.thread31

60:                                               ; preds = %54
  %61 = getelementptr inbounds nuw i8, ptr %3, i64 1936
  %62 = load i64, ptr %61, align 8, !tbaa !32
  store i64 %62, ptr %1, align 8, !tbaa !10
  br label %64

.thread31:                                        ; preds = %56, %50, %43
  %63 = call i32 @H5CX_pop(i1 noundef zeroext true) #12
  br label %.thread25

64:                                               ; preds = %37, %60
  %65 = call i32 @H5CX_pop(i1 noundef zeroext true) #12
  br label %67

.thread25:                                        ; preds = %33, %26, %13, %.thread31
  %66 = call i32 @H5E_dump_api_stack() #12
  br label %67

67:                                               ; preds = %64, %.thread25
  %.0132028 = phi i32 [ -1, %.thread25 ], [ 0, %64 ]
  call void @llvm.lifetime.end.p0(i64 480, ptr nonnull %4) #12
  call void @llvm.lifetime.end.p0(i64 2256, ptr nonnull %3) #12
  ret i32 %.0132028
}